; Function Attrs: mustprogress uwtable
define internal void @_ZN6duckdbL16ListFlattenStatsERNS_13ClientContextERNS_23FunctionStatisticsInputE(ptr dead_on_unwind noalias writable sret(%"class.duckdb::unique_ptr.9") align 8 %0, ptr nonnull readnone align 8 captures(none) %1, ptr noundef nonnull readonly align 8 captures(none) dereferenceable(32) %2) #3 personality ptr @__gxx_personality_v0 {
  %4 = alloca %"class.duckdb::BaseStatistics", align 8
  %5 = getelementptr inbounds nuw i8, ptr %2, i64 16
  %6 = load ptr, ptr %5, align 8, !tbaa !105
  %7 = tail call noundef nonnull align 8 dereferenceable(88) ptr @_ZN6duckdb6vectorINS_14BaseStatisticsELb1EEixEm(ptr noundef nonnull align 8 dereferenceable(24) %6, i64 noundef 0)
  %8 = tail call noundef nonnull align 8 dereferenceable(88) ptr @_ZN6duckdb9ListStats13GetChildStatsERNS_14BaseStatisticsE(ptr noundef nonnull align 8 dereferenceable(88) %7)
  call void @llvm.lifetime.start.p0(i64 88, ptr nonnull %4) #27
  call void @_ZNK6duckdb14BaseStatistics4CopyEv(ptr dead_on_unwind nonnull writable sret(%"class.duckdb::BaseStatistics") align 8 %4, ptr noundef nonnull align 8 dereferenceable(88) %8)
  invoke void @_ZN6duckdb14BaseStatistics3SetENS_9StatsInfoE(ptr noundef nonnull align 8 dereferenceable(88) %4, i8 noundef zeroext 0)
          to label %9 unwind label %11

9:                                                ; preds = %3
  invoke void @_ZNK6duckdb14BaseStatistics8ToUniqueEv(ptr dead_on_unwind writable sret(%"class.duckdb::unique_ptr.9") align 8 %0, ptr noundef nonnull align 8 dereferenceable(88) %4)
          to label %10 unwind label %11

10:                                               ; preds = %9
  call void @_ZN6duckdb14BaseStatisticsD1Ev(ptr noundef nonnull align 8 dereferenceable(88) %4) #27
  call void @llvm.lifetime.end.p0(i64 88, ptr nonnull %4) #27
  ret void

11:                                               ; preds = %9, %3
  %12 = landingpad { ptr, i32 }
          cleanup
  call void @_ZN6duckdb14BaseStatisticsD1Ev(ptr noundef nonnull align 8 dereferenceable(88) %4) #27
  call void @llvm.lifetime.end.p0(i64 88, ptr nonnull %4) #27
  resume { ptr, i32 } %12
}